; Function Attrs: nounwind uwtable
define internal void @remove_anim(ptr noundef %0) #0 {
  tail call void @lv_ll_remove(ptr noundef nonnull getelementptr inbounds nuw (i8, ptr @lv_global, i64 304), ptr noundef %0) #8
  %2 = getelementptr inbounds nuw i8, ptr %0, i64 40
  %3 = load ptr, ptr %2, align 8, !tbaa !39
  %.not = icmp eq ptr %3, null
  br i1 %.not, label %5, label %4

4:                                                ; preds = %1
  tail call void %3(ptr noundef nonnull %0) #8
  br label %5

5:                                                ; preds = %4, %1
  tail call void @lv_free(ptr noundef nonnull %0) #8
  ret void
}